target datalayout = "e-m:e-p270:32:32-p271:32:32-p272:64:64-i64:64-i128:128-f80:128-n8:16:32:64-S128"
target triple = "x86_64-pc-linux-gnu"

%struct.slurm_cred_t = type { i32, %union.pthread_rwlock_t, ptr, i32, i16, ptr, i64, ptr, i8 }
%union.pthread_rwlock_t = type { %struct.__pthread_rwlock_arch_t }
%struct.__pthread_rwlock_arch_t = type { i32, i32, i32, i32, i32, i32, i32, i32, i8, [7 x i8], i64, i32 }
%struct.buf_t = type { i32, ptr, i32, i32, i8, i8 }

@.str.4 = private unnamed_addr constant [18 x i8] c"%s: failed decode\00", align 1
@__func__._verify_signature = private unnamed_addr constant [18 x i8] c"_verify_signature\00", align 1

; Function Attrs: nounwind uwtable
define internal i32 @_verify_signature(ptr noundef %0, i32 noundef %1, ptr noundef %2) #0 {
  %4 = alloca i32, align 4
  %5 = alloca ptr, align 8
  %6 = alloca i32, align 4
  %7 = alloca ptr, align 8
  %8 = alloca i32, align 4
  %9 = alloca i8, align 1
  %10 = alloca ptr, align 8
  %11 = alloca i32, align 4
  store ptr %0, ptr %5, align 8
  store i32 %1, ptr %6, align 4
  store ptr %2, ptr %7, align 8
  call void @llvm.lifetime.start.p0(i64 4, ptr %8) #5
  store i32 0, ptr %8, align 4
  call void @llvm.lifetime.start.p0(i64 1, ptr %9) #5
  store i8 0, ptr %9, align 1
  call void @llvm.lifetime.start.p0(i64 8, ptr %10) #5
  store ptr null, ptr %10, align 8
  %12 = load ptr, ptr %7, align 8
  %13 = load i8, ptr %9, align 1, !range !8, !noundef !9
  %14 = trunc i8 %13 to i1
  %15 = call i32 @_decode(ptr noundef %12, i1 noundef zeroext %14, ptr noundef %10, ptr noundef null)
  store i32 %15, ptr %8, align 4
  %16 = icmp ne i32 %15, 0
  br i1 %16, label %17, label %20

17:                                               ; preds = %3
  %18 = call i32 (ptr, ...) @slurm_error(ptr noundef @.str.4, ptr noundef @__func__._verify_signature)
  %19 = load i32, ptr %8, align 4
  store i32 %19, ptr %4, align 4
  store i32 1, ptr %11, align 4
  br label %45

20:                                               ; preds = %3
  %21 = load i32, ptr %6, align 4
  %22 = load ptr, ptr %10, align 8
  %23 = getelementptr inbounds nuw %struct.buf_t, ptr %22, i32 0, i32 2
  %24 = load i32, ptr %23, align 8
  %25 = icmp ne i32 %21, %24
  br i1 %25, label %26, label %27

26:                                               ; preds = %20
  store i32 5001, ptr %8, align 4
  br label %40

27:                                               ; preds = %20
  %28 = load ptr, ptr %5, align 8
  %29 = load ptr, ptr %10, align 8
  %30 = getelementptr inbounds nuw %struct.buf_t, ptr %29, i32 0, i32 1
  %31 = load ptr, ptr %30, align 8
  %32 = load ptr, ptr %10, align 8
  %33 = getelementptr inbounds nuw %struct.buf_t, ptr %32, i32 0, i32 2
  %34 = load i32, ptr %33, align 8
  %35 = zext i32 %34 to i64
  %36 = call i32 @memcmp(ptr noundef %28, ptr noundef %31, i64 noundef %35) #6
  %37 = icmp ne i32 %36, 0
  br i1 %37, label %38, label %39

38:                                               ; preds = %27
  store i32 5000, ptr %8, align 4
  br label %39

39:                                               ; preds = %38, %27
  br label %40

40:                                               ; preds = %39, %26
  %41 = load ptr, ptr %10, align 8
  %42 = getelementptr inbounds nuw %struct.buf_t, ptr %41, i32 0, i32 1
  %43 = load ptr, ptr %42, align 8
  call void @free(ptr noundef %43) #5
  call void @slurm_xfree(ptr noundef %10)
  %44 = load i32, ptr %8, align 4
  store i32 %44, ptr %4, align 4
  store i32 1, ptr %11, align 4
  br label %45

45:                                               ; preds = %40, %17
  call void @llvm.lifetime.end.p0(i64 8, ptr %10) #5
  call void @llvm.lifetime.end.p0(i64 1, ptr %9) #5
  call void @llvm.lifetime.end.p0(i64 4, ptr %8) #5
  %46 = load i32, ptr %4, align 4
  ret i32 %46
}

; Function Attrs: nounwind uwtable
define dso_local ptr @cred_p_unpack(ptr noundef %0, i16 noundef zeroext %1) #0 {
  %3 = alloca ptr, align 8
  %4 = alloca ptr, align 8
  %5 = alloca i16, align 2
  %6 = alloca ptr, align 8
  %7 = alloca i32, align 4
  store ptr %0, ptr %4, align 8
  store i16 %1, ptr %5, align 2
  call void @llvm.lifetime.start.p0(i64 8, ptr %6) #5
  store ptr null, ptr %6, align 8
  %8 = load ptr, ptr %4, align 8
  %9 = load i16, ptr %5, align 2
  %10 = call ptr @cred_unpack_with_signature(ptr noundef %8, i16 noundef zeroext %9)
  store ptr %10, ptr %6, align 8
  %11 = icmp ne ptr %10, null
  br i1 %11, label %13, label %12

12:                                               ; preds = %2
  store ptr null, ptr %3, align 8
  store i32 1, ptr %7, align 4
  br label %41

13:                                               ; preds = %2
  %14 = load ptr, ptr %6, align 8
  %15 = getelementptr inbounds nuw %struct.slurm_cred_t, ptr %14, i32 0, i32 7
  %16 = load ptr, ptr %15, align 8
  %17 = icmp ne ptr %16, null
  br i1 %17, label %18, label %39

18:                                               ; preds = %13
  %19 = call zeroext i1 @slurm_running_in_slurmd()
  br i1 %19, label %20, label %39

20:                                               ; preds = %18
  %21 = load ptr, ptr %6, align 8
  %22 = getelementptr inbounds nuw %struct.slurm_cred_t, ptr %21, i32 0, i32 2
  %23 = load ptr, ptr %22, align 8
  %24 = getelementptr inbounds nuw %struct.buf_t, ptr %23, i32 0, i32 1
  %25 = load ptr, ptr %24, align 8
  %26 = load ptr, ptr %6, align 8
  %27 = getelementptr inbounds nuw %struct.slurm_cred_t, ptr %26, i32 0, i32 3
  %28 = load i32, ptr %27, align 8
  %29 = load ptr, ptr %6, align 8
  %30 = getelementptr inbounds nuw %struct.slurm_cred_t, ptr %29, i32 0, i32 7
  %31 = load ptr, ptr %30, align 8
  %32 = call i32 @_verify_signature(ptr noundef %25, i32 noundef %28, ptr noundef %31)
  %33 = icmp ne i32 %32, 0
  br i1 %33, label %34, label %36

34:                                               ; preds = %20
  %35 = load ptr, ptr %6, align 8
  call void @slurm_cred_destroy(ptr noundef %35)
  store ptr null, ptr %3, align 8
  store i32 1, ptr %7, align 4
  br label %41

36:                                               ; preds = %20
  %37 = load ptr, ptr %6, align 8
  %38 = getelementptr inbounds nuw %struct.slurm_cred_t, ptr %37, i32 0, i32 8
  store i8 1, ptr %38, align 8
  br label %39

39:                                               ; preds = %36, %18, %13
  %40 = load ptr, ptr %6, align 8
  store ptr %40, ptr %3, align 8
  store i32 1, ptr %7, align 4
  br label %41

41:                                               ; preds = %39, %34, %12
  call void @llvm.lifetime.end.p0(i64 8, ptr %6) #5
  %42 = load ptr, ptr %3, align 8
  ret ptr %42
}