; Function Attrs: nounwind uwtable
define dso_local ptr @cred_p_unpack(ptr noundef %0, i16 noundef zeroext %1) local_unnamed_addr #0 {
  %3 = alloca ptr, align 8
  %4 = tail call ptr @cred_unpack_with_signature(ptr noundef %0, i16 noundef zeroext %1) #7
  %.not = icmp eq ptr %4, null
  br i1 %.not, label %30, label %5

5:                                                ; preds = %2
  %6 = getelementptr inbounds nuw i8, ptr %4, i64 96
  %7 = load ptr, ptr %6, align 8
  %.not10 = icmp eq ptr %7, null
  br i1 %.not10, label %30, label %8

8:                                                ; preds = %5
  %9 = tail call zeroext i1 @slurm_running_in_slurmd() #7
  br i1 %9, label %10, label %30

10:                                               ; preds = %8
  %11 = getelementptr inbounds nuw i8, ptr %4, i64 64
  %12 = load ptr, ptr %11, align 8
  %13 = getelementptr inbounds nuw i8, ptr %12, i64 8
  %14 = load ptr, ptr %13, align 8
  %15 = getelementptr inbounds nuw i8, ptr %4, i64 72
  %16 = load i32, ptr %15, align 8
  %17 = load ptr, ptr %6, align 8
  call void @llvm.lifetime.start.p0(i64 8, ptr nonnull %3) #7
  store ptr null, ptr %3, align 8
  %18 = call fastcc i32 @_decode(ptr noundef %17, i1 noundef zeroext false, ptr noundef %3, ptr noundef null)
  %.not.i = icmp eq i32 %18, 0
  br i1 %.not.i, label %20, label %.critedge

.critedge:                                        ; preds = %10
  %19 = tail call i32 (ptr, ...) @slurm_error(ptr noundef nonnull @.str.4, ptr noundef nonnull @__func__._verify_signature) #7
  br label %.sink.split

20:                                               ; preds = %10
  %21 = load ptr, ptr %3, align 8
  %22 = getelementptr inbounds nuw i8, ptr %21, i64 16
  %23 = load i32, ptr %22, align 8
  %.not9.i = icmp eq i32 %16, %23
  %24 = getelementptr inbounds nuw i8, ptr %21, i64 8
  %25 = load ptr, ptr %24, align 8
  br i1 %.not9.i, label %._crit_edge.i, label %.critedge12

._crit_edge.i:                                    ; preds = %20
  %26 = zext i32 %16 to i64
  %bcmp.i = tail call i32 @bcmp(ptr readonly %14, ptr %25, i64 %26)
  %.not10.i = icmp eq i32 %bcmp.i, 0
  tail call void @free(ptr noundef %25) #7
  call void @slurm_xfree(ptr noundef nonnull %3) #7
  call void @llvm.lifetime.end.p0(i64 8, ptr nonnull %3) #7
  br i1 %.not10.i, label %28, label %27

.critedge12:                                      ; preds = %20
  tail call void @free(ptr noundef %25) #7
  call void @slurm_xfree(ptr noundef nonnull %3) #7
  br label %.sink.split

.sink.split:                                      ; preds = %.critedge, %.critedge12
  call void @llvm.lifetime.end.p0(i64 8, ptr nonnull %3) #7
  br label %27

27:                                               ; preds = %.sink.split, %._crit_edge.i
  call void @slurm_cred_destroy(ptr noundef nonnull %4) #7
  br label %30

28:                                               ; preds = %._crit_edge.i
  %29 = getelementptr inbounds nuw i8, ptr %4, i64 104
  store i8 1, ptr %29, align 8
  br label %30

30:                                               ; preds = %5, %8, %28, %2, %27
  %.0 = phi ptr [ null, %27 ], [ null, %2 ], [ %4, %28 ], [ %4, %8 ], [ %4, %5 ]
  ret ptr %.0
}